target datalayout = "e-m:e-p270:32:32-p271:32:32-p272:64:64-i64:64-i128:128-f80:128-n8:16:32:64-S128"
target triple = "x86_64-pc-linux-gnu"

%"struct.llvm::Align" = type { i8 }
%"class.llvm::SMLoc" = type { ptr }
%"class.llvm::ConstantPool" = type { %"class.llvm::SmallVector", %"class.std::map", %"class.llvm::DenseMap" }
%"class.llvm::SmallVector" = type { %"class.llvm::SmallVectorImpl", %"struct.llvm::SmallVectorStorage" }
%"class.llvm::SmallVectorImpl" = type { %"class.llvm::SmallVectorTemplateBase" }
%"class.llvm::SmallVectorTemplateBase" = type { %"class.llvm::SmallVectorTemplateCommon" }
%"class.llvm::SmallVectorTemplateCommon" = type { %"class.llvm::SmallVectorBase" }
%"class.llvm::SmallVectorBase" = type { ptr, i32, i32 }
%"struct.llvm::SmallVectorStorage" = type { [128 x i8] }
%"class.std::map" = type { %"class.std::_Rb_tree" }
%"class.std::_Rb_tree" = type { %"struct.std::_Rb_tree<std::pair<long, unsigned int>, std::pair<const std::pair<long, unsigned int>, const llvm::MCSymbolRefExpr *>, std::_Select1st<std::pair<const std::pair<long, unsigned int>, const llvm::MCSymbolRefExpr *>>, std::less<std::pair<long, unsigned int>>>::_Rb_tree_impl" }
%"struct.std::_Rb_tree<std::pair<long, unsigned int>, std::pair<const std::pair<long, unsigned int>, const llvm::MCSymbolRefExpr *>, std::_Select1st<std::pair<const std::pair<long, unsigned int>, const llvm::MCSymbolRefExpr *>>, std::less<std::pair<long, unsigned int>>>::_Rb_tree_impl" = type { [8 x i8], %"struct.std::_Rb_tree_header" }
%"struct.std::_Rb_tree_header" = type { %"struct.std::_Rb_tree_node_base", i64 }
%"struct.std::_Rb_tree_node_base" = type { i32, ptr, ptr, ptr }
%"class.llvm::DenseMap" = type <{ ptr, i32, i32, i32, [4 x i8] }>
%"struct.llvm::ConstantPoolEntry" = type { ptr, ptr, i32, %"class.llvm::SMLoc" }

; Function Attrs: mustprogress nounwind uwtable
define linkonce_odr hidden noundef i32 @_ZN4llvm6detail19LeadingZerosCounterImLm8EE5countEm(i64 noundef %0) #0 comdat align 2 {
  %2 = alloca i32, align 4
  %3 = alloca i64, align 8
  store i64 %0, ptr %3, align 8
  %4 = load i64, ptr %3, align 8
  %5 = icmp eq i64 %4, 0
  br i1 %5, label %6, label %7

6:                                                ; preds = %1
  store i32 64, ptr %2, align 4
  br label %11

7:                                                ; preds = %1
  %8 = load i64, ptr %3, align 8
  %9 = call i64 @llvm.ctlz.i64(i64 %8, i1 true)
  %10 = trunc i64 %9 to i32
  store i32 %10, ptr %2, align 4
  br label %11

11:                                               ; preds = %7, %6
  %12 = load i32, ptr %2, align 4
  ret i32 %12
}

; Function Attrs: mustprogress nounwind uwtable
define linkonce_odr noundef i32 @_ZN4llvm11countl_zeroImEEiT_(i64 noundef %0) #0 comdat {
  %2 = alloca i64, align 8
  store i64 %0, ptr %2, align 8
  %3 = load i64, ptr %2, align 8
  %4 = call noundef i32 @_ZN4llvm6detail19LeadingZerosCounterImLm8EE5countEm(i64 noundef %3)
  ret i32 %4
}

; Function Attrs: mustprogress nounwind uwtable
define linkonce_odr hidden void @_ZN4llvm23SmallVectorTemplateBaseINS_17ConstantPoolEntryELb1EE13destroy_rangeEPS1_S3_(ptr noundef %0, ptr noundef %1) #0 comdat align 2 {
  %3 = alloca ptr, align 8
  %4 = alloca ptr, align 8
  store ptr %0, ptr %3, align 8
  store ptr %1, ptr %4, align 8
  ret void
}

; Function Attrs: mustprogress nounwind uwtable
define linkonce_odr hidden noundef i32 @_ZN4llvm7Log2_64Em(i64 noundef %0) #0 comdat {
  %2 = alloca i64, align 8
  store i64 %0, ptr %2, align 8
  %3 = load i64, ptr %2, align 8
  %4 = call noundef i32 @_ZN4llvm11countl_zeroImEEiT_(i64 noundef %3)
  %5 = sub nsw i32 63, %4
  ret i32 %5
}

; Function Attrs: mustprogress nounwind uwtable
define linkonce_odr hidden void @_ZN4llvm15SmallVectorImplINS_17ConstantPoolEntryEE5clearEv(ptr noundef nonnull align 8 dereferenceable(16) %0) #0 comdat align 2 {
  %2 = alloca ptr, align 8
  store ptr %0, ptr %2, align 8
  %3 = load ptr, ptr %2, align 8
  %4 = call noundef ptr @_ZN4llvm25SmallVectorTemplateCommonINS_17ConstantPoolEntryEvE5beginEv(ptr noundef nonnull align 8 dereferenceable(16) %3)
  %5 = call noundef ptr @_ZN4llvm25SmallVectorTemplateCommonINS_17ConstantPoolEntryEvE3endEv(ptr noundef nonnull align 8 dereferenceable(16) %3)
  call void @_ZN4llvm23SmallVectorTemplateBaseINS_17ConstantPoolEntryELb1EE13destroy_rangeEPS1_S3_(ptr noundef %4, ptr noundef %5)
  %6 = getelementptr inbounds nuw %"class.llvm::SmallVectorBase", ptr %3, i32 0, i32 1
  store i32 0, ptr %6, align 8
  ret void
}

; Function Attrs: mustprogress nounwind uwtable
define linkonce_odr hidden void @_ZN4llvm5SMLocC2Ev(ptr noundef nonnull align 8 dereferenceable(8) %0) unnamed_addr #0 comdat align 2 {
  %2 = alloca ptr, align 8
  store ptr %0, ptr %2, align 8
  %3 = load ptr, ptr %2, align 8
  %4 = getelementptr inbounds nuw %"class.llvm::SMLoc", ptr %3, i32 0, i32 0
  store ptr null, ptr %4, align 8
  ret void
}

; Function Attrs: mustprogress nounwind uwtable
define linkonce_odr hidden void @_ZN4llvm5AlignC2Em(ptr noundef nonnull align 1 dereferenceable(1) %0, i64 noundef %1) unnamed_addr #0 comdat align 2 {
  %3 = alloca ptr, align 8
  %4 = alloca i64, align 8
  store ptr %0, ptr %3, align 8
  store i64 %1, ptr %4, align 8
  %5 = load ptr, ptr %3, align 8
  %6 = getelementptr inbounds nuw %"struct.llvm::Align", ptr %5, i32 0, i32 0
  store i8 0, ptr %6, align 1
  %7 = load i64, ptr %4, align 8
  %8 = call noundef i32 @_ZN4llvm7Log2_64Em(i64 noundef %7)
  %9 = trunc i32 %8 to i8
  %10 = getelementptr inbounds nuw %"struct.llvm::Align", ptr %5, i32 0, i32 0
  store i8 %9, ptr %10, align 1
  ret void
}

; Function Attrs: mustprogress nounwind uwtable
define linkonce_odr hidden noundef ptr @_ZN4llvm25SmallVectorTemplateCommonINS_17ConstantPoolEntryEvE3endEv(ptr noundef nonnull align 8 dereferenceable(16) %0) #0 comdat align 2 {
  %2 = alloca ptr, align 8
  store ptr %0, ptr %2, align 8
  %3 = load ptr, ptr %2, align 8
  %4 = call noundef ptr @_ZN4llvm25SmallVectorTemplateCommonINS_17ConstantPoolEntryEvE5beginEv(ptr noundef nonnull align 8 dereferenceable(16) %3)
  %5 = call noundef i64 @_ZNK4llvm15SmallVectorBaseIjE4sizeEv(ptr noundef nonnull align 8 dereferenceable(16) %3)
  %6 = getelementptr inbounds %"struct.llvm::ConstantPoolEntry", ptr %4, i64 %5
  ret ptr %6
}

; Function Attrs: mustprogress nounwind uwtable
define linkonce_odr hidden noundef ptr @_ZN4llvm25SmallVectorTemplateCommonINS_17ConstantPoolEntryEvE5beginEv(ptr noundef nonnull align 8 dereferenceable(16) %0) #0 comdat align 2 {
  %2 = alloca ptr, align 8
  store ptr %0, ptr %2, align 8
  %3 = load ptr, ptr %2, align 8
  %4 = getelementptr inbounds nuw %"class.llvm::SmallVectorBase", ptr %3, i32 0, i32 0
  %5 = load ptr, ptr %4, align 8
  ret ptr %5
}

; Function Attrs: mustprogress nounwind uwtable
define dso_local void @_ZN4llvm12ConstantPool11emitEntriesERNS_10MCStreamerE(ptr noundef nonnull align 8 dereferenceable(216) %0, ptr noundef nonnull align 8 dereferenceable(288) %1) #0 align 2 {
  %3 = alloca ptr, align 8
  %4 = alloca ptr, align 8
  %5 = alloca ptr, align 8
  %6 = alloca ptr, align 8
  %7 = alloca ptr, align 8
  %8 = alloca ptr, align 8
  %9 = alloca %"struct.llvm::Align", align 1
  %10 = alloca %"class.llvm::SMLoc", align 8
  %11 = alloca %"class.llvm::SMLoc", align 8
  store ptr %0, ptr %3, align 8
  store ptr %1, ptr %4, align 8
  %12 = load ptr, ptr %3, align 8
  %13 = getelementptr inbounds nuw %"class.llvm::ConstantPool", ptr %12, i32 0, i32 0
  %14 = call noundef zeroext i1 @_ZNK4llvm15SmallVectorBaseIjE5emptyEv(ptr noundef nonnull align 8 dereferenceable(16) %13)
  br i1 %14, label %15, label %16

15:                                               ; preds = %2
  br label %71

16:                                               ; preds = %2
  %17 = load ptr, ptr %4, align 8
  %18 = load ptr, ptr %17, align 8
  %19 = getelementptr inbounds ptr, ptr %18, i64 29
  %20 = load ptr, ptr %19, align 8
  call void %20(ptr noundef nonnull align 8 dereferenceable(288) %17, i32 noundef 0)
  %21 = getelementptr inbounds nuw %"class.llvm::ConstantPool", ptr %12, i32 0, i32 0
  store ptr %21, ptr %5, align 8
  %22 = load ptr, ptr %5, align 8
  %23 = call noundef ptr @_ZN4llvm25SmallVectorTemplateCommonINS_17ConstantPoolEntryEvE5beginEv(ptr noundef nonnull align 8 dereferenceable(16) %22)
  store ptr %23, ptr %6, align 8
  %24 = load ptr, ptr %5, align 8
  %25 = call noundef ptr @_ZN4llvm25SmallVectorTemplateCommonINS_17ConstantPoolEntryEvE3endEv(ptr noundef nonnull align 8 dereferenceable(16) %24)
  store ptr %25, ptr %7, align 8
  br label %26

26:                                               ; preds = %62, %16
  %27 = load ptr, ptr %6, align 8
  %28 = load ptr, ptr %7, align 8
  %29 = icmp ne ptr %27, %28
  br i1 %29, label %30, label %65

30:                                               ; preds = %26
  %31 = load ptr, ptr %6, align 8
  store ptr %31, ptr %8, align 8
  %32 = load ptr, ptr %4, align 8
  %33 = load ptr, ptr %8, align 8
  %34 = getelementptr inbounds nuw %"struct.llvm::ConstantPoolEntry", ptr %33, i32 0, i32 2
  %35 = load i32, ptr %34, align 8
  %36 = zext i32 %35 to i64
  call void @_ZN4llvm5AlignC2Em(ptr noundef nonnull align 1 dereferenceable(1) %9, i64 noundef %36)
  %37 = getelementptr inbounds nuw %"struct.llvm::Align", ptr %9, i32 0, i32 0
  %38 = load i8, ptr %37, align 1
  %39 = load ptr, ptr %32, align 8
  %40 = getelementptr inbounds ptr, ptr %39, i64 80
  %41 = load ptr, ptr %40, align 8
  call void %41(ptr noundef nonnull align 8 dereferenceable(288) %32, i8 %38, i64 noundef 0, i32 noundef 1, i32 noundef 0)
  %42 = load ptr, ptr %4, align 8
  %43 = load ptr, ptr %8, align 8
  %44 = getelementptr inbounds nuw %"struct.llvm::ConstantPoolEntry", ptr %43, i32 0, i32 0
  %45 = load ptr, ptr %44, align 8
  call void @llvm.memset.p0.i64(ptr align 8 %10, i8 0, i64 8, i1 false)
  call void @_ZN4llvm5SMLocC2Ev(ptr noundef nonnull align 8 dereferenceable(8) %10) #10
  %46 = getelementptr inbounds nuw %"class.llvm::SMLoc", ptr %10, i32 0, i32 0
  %47 = load ptr, ptr %46, align 8
  %48 = load ptr, ptr %42, align 8
  %49 = getelementptr inbounds ptr, ptr %48, i64 25
  %50 = load ptr, ptr %49, align 8
  call void %50(ptr noundef nonnull align 8 dereferenceable(288) %42, ptr noundef %45, ptr %47)
  %51 = load ptr, ptr %4, align 8
  %52 = load ptr, ptr %8, align 8
  %53 = getelementptr inbounds nuw %"struct.llvm::ConstantPoolEntry", ptr %52, i32 0, i32 1
  %54 = load ptr, ptr %53, align 8
  %55 = load ptr, ptr %8, align 8
  %56 = getelementptr inbounds nuw %"struct.llvm::ConstantPoolEntry", ptr %55, i32 0, i32 2
  %57 = load i32, ptr %56, align 8
  %58 = load ptr, ptr %8, align 8
  %59 = getelementptr inbounds nuw %"struct.llvm::ConstantPoolEntry", ptr %58, i32 0, i32 3
  call void @llvm.memcpy.p0.p0.i64(ptr align 8 %11, ptr align 8 %59, i64 8, i1 false)
  %60 = getelementptr inbounds nuw %"class.llvm::SMLoc", ptr %11, i32 0, i32 0
  %61 = load ptr, ptr %60, align 8
  call void @_ZN4llvm10MCStreamer9emitValueEPKNS_6MCExprEjNS_5SMLocE(ptr noundef nonnull align 8 dereferenceable(288) %51, ptr noundef %54, i32 noundef %57, ptr %61)
  br label %62

62:                                               ; preds = %30
  %63 = load ptr, ptr %6, align 8
  %64 = getelementptr inbounds %"struct.llvm::ConstantPoolEntry", ptr %63, i32 1
  store ptr %64, ptr %6, align 8
  br label %26

65:                                               ; preds = %26
  %66 = load ptr, ptr %4, align 8
  %67 = load ptr, ptr %66, align 8
  %68 = getelementptr inbounds ptr, ptr %67, i64 29
  %69 = load ptr, ptr %68, align 8
  call void %69(ptr noundef nonnull align 8 dereferenceable(288) %66, i32 noundef 4)
  %70 = getelementptr inbounds nuw %"class.llvm::ConstantPool", ptr %12, i32 0, i32 0
  call void @_ZN4llvm15SmallVectorImplINS_17ConstantPoolEntryEE5clearEv(ptr noundef nonnull align 8 dereferenceable(16) %70)
  br label %71

71:                                               ; preds = %65, %15
  ret void
}