; Function Attrs: mustprogress nounwind uwtable
define dso_local void @_ZN4llvm12ConstantPool11emitEntriesERNS_10MCStreamerE(ptr noundef nonnull align 8 dereferenceable(216) %0, ptr noundef nonnull align 8 dereferenceable(288) %1) local_unnamed_addr #0 align 2 {
  %3 = tail call noundef zeroext i1 @_ZNK4llvm15SmallVectorBaseIjE5emptyEv(ptr noundef nonnull align 8 dereferenceable(16) %0) #14
  br i1 %3, label %34, label %4

4:                                                ; preds = %2
  %5 = load ptr, ptr %1, align 8
  %6 = getelementptr inbounds i8, ptr %5, i64 232
  %7 = load ptr, ptr %6, align 8
  tail call void %7(ptr noundef nonnull align 8 dereferenceable(288) %1, i32 noundef 0) #14
  %8 = load ptr, ptr %0, align 8
  %9 = tail call noundef i64 @_ZNK4llvm15SmallVectorBaseIjE4sizeEv(ptr noundef nonnull align 8 dereferenceable(16) %0) #14
  %10 = getelementptr inbounds %"struct.llvm::ConstantPoolEntry", ptr %8, i64 %9
  %.not18 = icmp eq i64 %9, 0
  br i1 %.not18, label %._crit_edge, label %.lr.ph

.lr.ph:                                           ; preds = %4, %.lr.ph
  %.019 = phi ptr [ %28, %.lr.ph ], [ %8, %4 ]
  %11 = getelementptr inbounds nuw i8, ptr %.019, i64 16
  %12 = load i32, ptr %11, align 8
  %13 = zext i32 %12 to i64
  %14 = tail call range(i64 0, 65) i64 @llvm.ctlz.i64(i64 %13, i1 false)
  %15 = trunc nuw nsw i64 %14 to i8
  %16 = sub nsw i8 63, %15
  %17 = load ptr, ptr %1, align 8
  %18 = getelementptr inbounds i8, ptr %17, i64 640
  %19 = load ptr, ptr %18, align 8
  tail call void %19(ptr noundef nonnull align 8 dereferenceable(288) %1, i8 %16, i64 noundef 0, i32 noundef 1, i32 noundef 0) #14
  %20 = load ptr, ptr %.019, align 8
  %21 = load ptr, ptr %1, align 8
  %22 = getelementptr inbounds i8, ptr %21, i64 200
  %23 = load ptr, ptr %22, align 8
  tail call void %23(ptr noundef nonnull align 8 dereferenceable(288) %1, ptr noundef %20, ptr null) #14
  %24 = getelementptr inbounds nuw i8, ptr %.019, i64 8
  %25 = load ptr, ptr %24, align 8
  %26 = load i32, ptr %11, align 8
  %27 = getelementptr inbounds nuw i8, ptr %.019, i64 24
  %.sroa.0.0.copyload = load ptr, ptr %27, align 8
  tail call void @_ZN4llvm10MCStreamer9emitValueEPKNS_6MCExprEjNS_5SMLocE(ptr noundef nonnull align 8 dereferenceable(288) %1, ptr noundef %25, i32 noundef %26, ptr %.sroa.0.0.copyload) #14
  %28 = getelementptr inbounds i8, ptr %.019, i64 32
  %.not = icmp eq ptr %28, %10
  br i1 %.not, label %._crit_edge, label %.lr.ph

._crit_edge:                                      ; preds = %.lr.ph, %4
  %29 = load ptr, ptr %1, align 8
  %30 = getelementptr inbounds i8, ptr %29, i64 232
  %31 = load ptr, ptr %30, align 8
  tail call void %31(ptr noundef nonnull align 8 dereferenceable(288) %1, i32 noundef 4) #14
  %32 = tail call noundef i64 @_ZNK4llvm15SmallVectorBaseIjE4sizeEv(ptr noundef nonnull align 8 dereferenceable(16) %0) #14
  %33 = getelementptr inbounds nuw i8, ptr %0, i64 8
  store i32 0, ptr %33, align 8
  br label %34

34:                                               ; preds = %2, %._crit_edge
  ret void
}